Certificate:
    Data:
        Version: 3 (0x2)
        Serial Number: 1 (0x1)
        Signature Algorithm: md5WithRSAEncryption
        Issuer: O=proyecto-hesperia.org, OU=UCLM, CN=Hesperia CA/emailAddress=francisco.moya@uclm.es
        Validity
            Not Before: Oct 27 18:05:30 2007 GMT
            Not After : Oct 25 18:05:30 2012 GMT
        Subject: O=proyecto-hesperia.org, OU=People/emailAddress=info@proyecto-hesperia.org, CN=Demo
        Subject Public Key Info:
            Public Key Algorithm: rsaEncryption
            RSA Public Key: (1024 bit)
                Modulus (1024 bit):
                    00:a5:f4:02:ec:8c:8a:b4:4c:99:c8:05:4b:63:b5:
                    38:4a:e3:cd:fc:d5:ff:f0:c1:55:06:fc:33:21:48:
                    76:c8:fd:02:72:ff:ae:39:1e:d8:6b:32:08:f9:6e:
                    48:c3:dd:c7:44:a5:b5:08:d0:5f:a0:39:ab:d8:4a:
                    18:9d:af:5d:21:35:3e:29:68:33:a8:75:35:2d:9c:
                    16:ee:a8:e8:0a:f6:e1:53:11:35:5a:98:4b:07:d1:
                    cd:fd:4a:2b:48:63:4f:39:ab:98:2a:ee:1b:70:db:
                    92:9e:c3:f1:29:d4:08:3b:eb:ac:ca:1e:47:7f:2b:
                    6f:f6:21:44:e5:97:80:49:3d
                Exponent: 65537 (0x10001)
        X509v3 extensions:
            X509v3 Basic Constraints: 
                CA:FALSE
            X509v3 Subject Key Identifier: 
                B8:E5:14:B0:B0:E3:C3:7E:3E:23:51:98:71:7B:DA:CB:69:74:BA:26
            X509v3 Authority Key Identifier: 
                keyid:D4:20:8E:89:F9:02:F4:85:52:4D:FD:25:78:5B:0D:84:E5:2E:DD:38
                DirName:/O=proyecto-hesperia.org/OU=UCLM/CN=Hesperia CA/emailAddress=francisco.moya@uclm.es
                serial:F0:33:41:A8:CB:63:E6:75

    Signature Algorithm: md5WithRSAEncryption
        76:5a:b2:a5:cf:d6:86:f1:8a:06:a4:6b:d4:d8:84:bc:7c:34:
        97:b7:fd:c4:8a:32:05:65:71:97:9f:49:cc:b0:24:e3:06:92:
        87:c3:d2:14:e8:10:9f:26:f9:0c:5d:4d:e2:08:2c:38:43:77:
        c5:0c:1e:66:47:f7:5e:92:f3:da:fa:8d:5e:72:f5:08:c3:e4:
        53:68:a0:3f:e1:85:8c:c2:1f:68:06:ed:42:1f:92:82:5d:c2:
        7a:29:8a:df:bf:c1:cf:98:05:e2:c7:90:65:7e:2c:e8:87:77:
        d2:08:f9:96:0f:bb:69:db:0a:98:7d:58:d7:5d:96:7a:5a:bb:
        f6:6f:ed:cf:8d:99:cf:fc:39:7b:3f:c1:20:aa:4f:46:43:6d:
        06:e8:59:26:dd:43:0c:82:3c:fc:ae:7e:aa:f7:9d:a1:af:d7:
        da:95:0e:55:ff:11:23:84:22:ae:22:9b:92:b3:28:5a:f1:d3:
        7d:9b:9e:8c:5f:ff:36:39:0a:50:57:d0:53:8a:0c:b0:76:6b:
        96:f0:b9:08:b4:d4:cf:72:c0:d0:dd:60:70:a7:92:09:a8:b9:
        45:6e:a3:d1:4f:6c:51:5b:fe:25:0d:e4:ba:92:b6:3b:45:c1:
        49:ff:b8:81:58:ea:bc:99:24:85:9b:99:a5:e7:ef:83:19:d6:
        3a:ce:e9:2a
-----BEGIN CERTIFICATE-----
MIIDnTCCAoWgAwIBAgIBATANBgkqhkiG9w0BAQQFADBsMR4wHAYDVQQKExVwcm95
ZWN0by1oZXNwZXJpYS5vcmcxDTALBgNVBAsTBFVDTE0xFDASBgNVBAMTC0hlc3Bl
cmlhIENBMSUwIwYJKoZIhvcNAQkBFhZmcmFuY2lzY28ubW95YUB1Y2xtLmVzMB4X
DTA3MTAyNzE4MDUzMFoXDTEyMTAyNTE4MDUzMFowazEeMBwGA1UEChMVcHJveWVj
dG8taGVzcGVyaWEub3JnMQ8wDQYDVQQLEwZQZW9wbGUxKTAnBgkqhkiG9w0BCQEW
GmluZm9AcHJveWVjdG8taGVzcGVyaWEub3JnMQ0wCwYDVQQDEwREZW1vMIGfMA0G
CSqGSIb3DQEBAQUAA4GNADCBiQKBgQCl9ALsjIq0TJnIBUtjtThK48381f/wwVUG
/DMhSHbI/QJy/645HthrMgj5bkjD3cdEpbUI0F+gOavYShidr10hNT4paDOodTUt
nBbuqOgK9uFTETVamEsH0c39SitIY085q5gq7htw25Kew/Ep1Ag766zKHkd/K2/2
IUTll4BJPQIDAQABo4HOMIHLMAkGA1UdEwQCMAAwHQYDVR0OBBYEFLjlFLCw48N+
PiNRmHF72stpdLomMIGeBgNVHSMEgZYwgZOAFNQgjon5AvSFUk39JXhbDYTlLt04
oXCkbjBsMR4wHAYDVQQKExVwcm95ZWN0by1oZXNwZXJpYS5vcmcxDTALBgNVBAsT
BFVDTE0xFDASBgNVBAMTC0hlc3BlcmlhIENBMSUwIwYJKoZIhvcNAQkBFhZmcmFu
Y2lzY28ubW95YUB1Y2xtLmVzggkA8DNBqMtj5nUwDQYJKoZIhvcNAQEEBQADggEB
AHZasqXP1obxigaka9TYhLx8NJe3/cSKMgVlcZefScywJOMGkofD0hToEJ8m+Qxd
TeIILDhDd8UMHmZH916S89r6jV5y9QjD5FNooD/hhYzCH2gG7UIfkoJdwnopit+/
wc+YBeLHkGV+LOiHd9II+ZYPu2nbCph9WNddlnpau/Zv7c+Nmc/8OXs/wSCqT0ZD
bQboWSbdQwyCPPyufqr3naGv19qVDlX/ESOEIq4im5KzKFrx032bnoxf/zY5ClBX
0FOKDLB2a5bwuQi01M9ywNDdYHCnkgmouUVuo9FPbFFb/iUN5LqStjtFwUn/uIFY
6ryZJIWbmaXn74MZ1jrO6So=
-----END CERTIFICATE-----
